; Function Attrs: nounwind uwtable
define dso_local ptr @make_tlist_from_pathtarget(ptr noundef readonly captures(none) %0) local_unnamed_addr #0 {
  %2 = getelementptr inbounds nuw i8, ptr %0, i64 8
  %3 = load ptr, ptr %2, align 8
  %4 = getelementptr inbounds nuw i8, ptr %3, i64 4
  %.not = icmp eq ptr %3, null
  br i1 %.not, label %._crit_edge, label %.lr.ph

.lr.ph:                                           ; preds = %1
  %5 = getelementptr inbounds nuw i8, ptr %3, i64 16
  %6 = getelementptr inbounds nuw i8, ptr %0, i64 16
  %7 = load i32, ptr %4, align 4
  %8 = icmp sgt i32 %7, 0
  br i1 %8, label %.lr.ph32, label %._crit_edge

._crit_edge:                                      ; preds = %19, %.lr.ph, %1
  %.0.lcssa = phi ptr [ null, %1 ], [ null, %.lr.ph ], [ %20, %19 ]
  ret ptr %.0.lcssa

.lr.ph32:                                         ; preds = %.lr.ph, %19
  %indvars.iv = phi i64 [ %indvars.iv.next, %19 ], [ 0, %.lr.ph ]
  %.02529 = phi ptr [ %20, %19 ], [ null, %.lr.ph ]
  %9 = load ptr, ptr %5, align 8
  %10 = getelementptr inbounds nuw %union.ListCell, ptr %9, i64 %indvars.iv
  %11 = load ptr, ptr %10, align 8
  %indvars.iv.next = add nuw nsw i64 %indvars.iv, 1
  %12 = trunc i64 %indvars.iv.next to i16
  %13 = tail call ptr @makeTargetEntry(ptr noundef %11, i16 noundef signext %12, ptr noundef null, i1 noundef zeroext false) #10
  %14 = load ptr, ptr %6, align 8
  %.not20 = icmp eq ptr %14, null
  br i1 %.not20, label %19, label %15

15:                                               ; preds = %.lr.ph32
  %16 = getelementptr inbounds nuw i32, ptr %14, i64 %indvars.iv
  %17 = load i32, ptr %16, align 4
  %18 = getelementptr inbounds nuw i8, ptr %13, i64 32
  store i32 %17, ptr %18, align 8
  br label %19

19:                                               ; preds = %15, %.lr.ph32
  %20 = tail call ptr @lappend(ptr noundef %.02529, ptr noundef %13) #10
  %21 = load i32, ptr %4, align 4
  %22 = sext i32 %21 to i64
  %23 = icmp slt i64 %indvars.iv.next, %22
  br i1 %23, label %.lr.ph32, label %._crit_edge
}